; Function Attrs: mustprogress uwtable
define noundef zeroext i1 @_ZNK6casadi11Interpolant10arg_valuesEx(ptr nocapture noundef nonnull readonly align 8 dereferenceable(1432) %0, i64 noundef %1) local_unnamed_addr #3 align 2 {
  %3 = getelementptr inbounds i8, ptr %0, i64 1384
  %4 = load ptr, ptr %3, align 8
  %5 = getelementptr inbounds i8, ptr %0, i64 1392
  %6 = load ptr, ptr %5, align 8
  %7 = icmp eq ptr %4, %6
  br i1 %7, label %8, label %11

8:                                                ; preds = %2
  %9 = tail call noundef i64 @_ZNK6casadi11Interpolant10arg_valuesEv(ptr noundef nonnull align 8 dereferenceable(1432) %0), !range !58
  %10 = icmp eq i64 %9, %1
  br label %11

11:                                               ; preds = %2, %8
  %.0 = phi i1 [ %10, %8 ], [ false, %2 ]
  ret i1 %.0
}